Certificate:
    Data:
        Version: 3 (0x2)
        Serial Number: 2 (0x2)
        Signature Algorithm: sha256WithRSAEncryption
        Issuer: C=CZ, ST=Czech Republic, L=Brno, O=Masaryk University, OU=Faculty of Informatics, CN=Cyber Sandbox Creator/emailAddress=svabensky@ics.muni.cz
        Validity
            Not Before: Jan 29 13:17:24 2021 GMT
            Not After : Jan 29 13:17:24 2022 GMT
        Subject: C=CZ, ST=Czech Republic, L=Brno, O=Masaryk University, OU=Faculty of Informatics, CN=MAN
        Subject Public Key Info:
            Public Key Algorithm: rsaEncryption
                RSA Public-Key: (2048 bit)
                Modulus:
                    00:f2:e7:e6:13:9b:26:e8:68:c4:d2:03:f6:62:85:
                    86:38:fc:df:f1:67:d8:d6:d1:2e:c4:dd:13:5a:ea:
                    55:16:4e:9d:06:08:c1:db:17:68:4d:9e:5c:fa:c5:
                    2c:c4:47:8a:3c:45:5a:af:16:92:dc:29:cb:05:3e:
                    a3:b4:d8:f3:b7:5f:b9:e5:e1:0b:56:f2:4f:93:4c:
                    d2:67:1c:7f:9a:78:b2:45:41:e9:9f:9f:fe:53:37:
                    e2:b8:04:f3:e9:12:8f:b2:4d:09:99:45:5f:22:ee:
                    79:40:72:cc:1d:e6:76:e4:37:a2:ac:2f:75:d3:be:
                    79:d0:60:f5:b6:fc:39:a5:0a:5a:66:15:c4:dd:2e:
                    db:d8:2b:85:e0:08:6f:dd:cf:98:6b:b7:70:94:40:
                    e2:83:e1:f5:95:97:6b:0e:0e:84:36:5d:4f:13:98:
                    1f:43:12:89:82:50:6e:46:6d:c7:62:dd:0a:09:c1:
                    df:b8:68:16:56:bc:08:e6:b7:eb:df:f0:dd:5f:16:
                    9d:4b:67:84:34:66:00:2f:85:6d:04:72:bc:14:ed:
                    bc:42:e8:3c:b4:26:fd:fc:73:f1:25:d6:f0:7b:01:
                    5e:d1:50:8e:96:66:59:50:a1:52:0b:14:35:dc:a6:
                    34:34:06:ea:80:07:11:ee:2a:e4:7e:9d:83:ab:2a:
                    f2:81
                Exponent: 65537 (0x10001)
        X509v3 extensions:
            X509v3 Basic Constraints: 
                CA:FALSE
            Netscape Comment: 
                OpenSSL Generated Certificate
            X509v3 Subject Key Identifier: 
                EB:26:42:47:D4:36:E7:4D:C2:81:9B:8B:BA:44:8A:67:79:6A:F4:21
            X509v3 Authority Key Identifier: 
                keyid:F5:1A:E2:AB:60:51:35:A2:DC:1D:77:39:31:23:0E:BB:92:F8:0D:FC

    Signature Algorithm: sha256WithRSAEncryption
         0e:ff:59:41:c2:01:5a:13:b0:44:52:5c:1c:94:d0:3f:54:6d:
         ce:14:26:87:07:b6:0a:8b:23:c3:50:62:9d:6d:79:67:0e:44:
         bd:e3:c2:48:c1:65:cf:e8:f9:67:09:ce:10:4e:2f:19:c7:3a:
         89:80:30:9b:24:f0:7b:26:45:0d:94:9a:f5:fd:7d:80:f6:47:
         f2:63:b4:73:8c:4c:28:9e:fc:de:82:f0:7e:43:fd:23:d2:0a:
         fb:e8:b4:ad:a6:27:92:41:13:9d:8d:8a:3d:13:f6:a8:91:00:
         c2:2a:6e:22:ca:85:93:95:ac:c7:fb:4f:87:c9:d3:ec:73:4b:
         cd:54:4a:2d:a1:e1:76:2f:f5:f0:27:39:71:dc:54:e5:df:ce:
         e5:4c:3e:61:13:13:91:06:c0:b2:7b:8b:b5:e2:29:23:f6:fe:
         cb:53:f8:a2:c5:cf:a4:f6:81:0a:24:14:aa:ce:4b:9f:45:5a:
         8d:88:06:2e:91:c2:19:f9:51:7a:ea:de:c0:bb:8b:ac:8d:63:
         76:6e:23:1e:a5:bc:d9:85:86:93:4a:c7:07:3d:2b:e8:63:89:
         65:86:36:69:5a:0f:f3:4b:39:ba:d1:33:30:e7:5a:24:b9:09:
         aa:fd:4f:b3:55:24:f0:18:14:a2:b4:ee:30:0c:db:2b:38:0c:
         fd:6d:ed:70
-----BEGIN CERTIFICATE-----
MIIEMjCCAxqgAwIBAgIBAjANBgkqhkiG9w0BAQsFADCBuTELMAkGA1UEBhMCQ1ox
FzAVBgNVBAgMDkN6ZWNoIFJlcHVibGljMQ0wCwYDVQQHDARCcm5vMRswGQYDVQQK
DBJNYXNhcnlrIFVuaXZlcnNpdHkxHzAdBgNVBAsMFkZhY3VsdHkgb2YgSW5mb3Jt
YXRpY3MxHjAcBgNVBAMMFUN5YmVyIFNhbmRib3ggQ3JlYXRvcjEkMCIGCSqGSIb3
DQEJARYVc3ZhYmVuc2t5QGljcy5tdW5pLmN6MB4XDTIxMDEyOTEzMTcyNFoXDTIy
MDEyOTEzMTcyNFowgYExCzAJBgNVBAYTAkNaMRcwFQYDVQQIDA5DemVjaCBSZXB1
YmxpYzENMAsGA1UEBwwEQnJubzEbMBkGA1UECgwSTWFzYXJ5ayBVbml2ZXJzaXR5
MR8wHQYDVQQLDBZGYWN1bHR5IG9mIEluZm9ybWF0aWNzMQwwCgYDVQQDDANNQU4w
ggEiMA0GCSqGSIb3DQEBAQUAA4IBDwAwggEKAoIBAQDy5+YTmyboaMTSA/ZihYY4
/N/xZ9jW0S7E3RNa6lUWTp0GCMHbF2hNnlz6xSzER4o8RVqvFpLcKcsFPqO02PO3
X7nl4QtW8k+TTNJnHH+aeLJFQemfn/5TN+K4BPPpEo+yTQmZRV8i7nlAcswd5nbk
N6KsL3XTvnnQYPW2/DmlClpmFcTdLtvYK4XgCG/dz5hrt3CUQOKD4fWVl2sODoQ2
XU8TmB9DEomCUG5Gbcdi3QoJwd+4aBZWvAjmt+vf8N1fFp1LZ4Q0ZgAvhW0EcrwU
7bxC6Dy0Jv38c/El1vB7AV7RUI6WZllQoVILFDXcpjQ0BuqABxHuKuR+nYOrKvKB
AgMBAAGjezB5MAkGA1UdEwQCMAAwLAYJYIZIAYb4QgENBB8WHU9wZW5TU0wgR2Vu
ZXJhdGVkIENlcnRpZmljYXRlMB0GA1UdDgQWBBTrJkJH1DbnTcKBm4u6RIpneWr0
ITAfBgNVHSMEGDAWgBT1GuKrYFE1otwddzkxIw67kvgN/DANBgkqhkiG9w0BAQsF
AAOCAQEADv9ZQcIBWhOwRFJcHJTQP1RtzhQmhwe2Cosjw1BinW15Zw5EvePCSMFl
z+j5ZwnOEE4vGcc6iYAwmyTweyZFDZSa9f19gPZH8mO0c4xMKJ783oLwfkP9I9IK
++i0raYnkkETnY2KPRP2qJEAwipuIsqFk5Wsx/tPh8nT7HNLzVRKLaHhdi/18Cc5
cdxU5d/O5Uw+YRMTkQbAsnuLteIpI/b+y1P4osXPpPaBCiQUqs5Ln0VajYgGLpHC
GflReurewLuLrI1jdm4jHqW82YWGk0rHBz0r6GOJZYY2aVoP80s5utEzMOdaJLkJ
qv1Ps1Uk8BgUorTuMAzbKzgM/W3tcA==
-----END CERTIFICATE-----
